target datalayout = "e-m:e-p270:32:32-p271:32:32-p272:64:64-i64:64-i128:128-f80:128-n8:16:32:64-S128"
target triple = "x86_64-pc-linux-gnu"

%struct.slurm_conf_t = type { i64, ptr, i16, ptr, ptr, ptr, ptr, ptr, i16, ptr, ptr, ptr, ptr, ptr, ptr, ptr, i16, ptr, ptr, ptr, ptr, i16, ptr, ptr, ptr, i64, ptr, ptr, ptr, ptr, i16, ptr, ptr, i16, i32, ptr, i32, ptr, i32, i32, ptr, ptr, i64, i64, ptr, i16, i16, ptr, i32, i32, ptr, i32, ptr, i32, i16, i16, i16, ptr, i16, i16, ptr, ptr, i32, i16, i16, ptr, i32, i16, ptr, ptr, ptr, ptr, i16, ptr, ptr, ptr, ptr, i32, ptr, ptr, ptr, ptr, i16, i16, ptr, i32, i32, i32, i16, i16, ptr, ptr, i16, ptr, ptr, i32, i32, i32, i32, i32, i64, i32, i32, i16, ptr, ptr, i32, ptr, ptr, ptr, i16, i32, ptr, ptr, i16, ptr, ptr, i32, i16, ptr, ptr, ptr, ptr, i32, i32, i16, i16, i32, ptr, i16, ptr, i32, i32, i32, i32, i32, i32, ptr, i16, ptr, ptr, i32, i16, ptr, i32, i16, i16, ptr, ptr, ptr, i16, ptr, ptr, ptr, ptr, i16, i16, ptr, i16, ptr, i16, ptr, i16, ptr, i16, ptr, ptr, ptr, ptr, i16, ptr, ptr, ptr, i32, ptr, i32, ptr, ptr, i16, ptr, ptr, i32, i16, ptr, ptr, i16, i16, ptr, i16, ptr, ptr, ptr, i32, ptr, i16, i16, ptr, ptr, ptr, ptr, ptr, ptr, ptr, ptr, i16, i32, i16, ptr, ptr, ptr, ptr, i32, ptr, ptr, ptr, i16, ptr, ptr, ptr, i16, ptr, i16, ptr, i16, i16, ptr }

@get_new_info_config.new_ctl_ptr = internal global ptr null, align 8
@g_ctl_info_ptr = external global ptr, align 8

; Function Attrs: nounwind uwtable
define dso_local i32 @get_new_info_config(ptr noundef %0) #0 {
  %2 = alloca ptr, align 8
  %3 = alloca i32, align 4
  store ptr %0, ptr %2, align 8
  call void @llvm.lifetime.start.p0(i64 4, ptr %3) #4
  store i32 1900, ptr %3, align 4
  %4 = load ptr, ptr @g_ctl_info_ptr, align 8
  %5 = icmp ne ptr %4, null
  br i1 %5, label %6, label %23

6:                                                ; preds = %1
  %7 = load ptr, ptr @g_ctl_info_ptr, align 8
  %8 = getelementptr inbounds nuw %struct.slurm_conf_t, ptr %7, i32 0, i32 0
  %9 = load i64, ptr %8, align 8
  %10 = call i32 @slurm_load_ctl_conf(i64 noundef %9, ptr noundef @get_new_info_config.new_ctl_ptr)
  store i32 %10, ptr %3, align 4
  %11 = load i32, ptr %3, align 4
  %12 = icmp eq i32 %11, 0
  br i1 %12, label %13, label %15

13:                                               ; preds = %6
  %14 = load ptr, ptr @g_ctl_info_ptr, align 8
  call void @slurm_free_ctl_conf(ptr noundef %14)
  br label %22

15:                                               ; preds = %6
  %16 = call ptr @__errno_location() #5
  %17 = load i32, ptr %16, align 4
  %18 = icmp eq i32 %17, 1900
  br i1 %18, label %19, label %21

19:                                               ; preds = %15
  store i32 1900, ptr %3, align 4
  %20 = load ptr, ptr @g_ctl_info_ptr, align 8
  store ptr %20, ptr @get_new_info_config.new_ctl_ptr, align 8
  br label %21

21:                                               ; preds = %19, %15
  br label %22

22:                                               ; preds = %21, %13
  br label %25

23:                                               ; preds = %1
  store ptr null, ptr @get_new_info_config.new_ctl_ptr, align 8
  %24 = call i32 @slurm_load_ctl_conf(i64 noundef 0, ptr noundef @get_new_info_config.new_ctl_ptr)
  store i32 %24, ptr %3, align 4
  br label %25

25:                                               ; preds = %23, %22
  %26 = load ptr, ptr @get_new_info_config.new_ctl_ptr, align 8
  store ptr %26, ptr @g_ctl_info_ptr, align 8
  %27 = load ptr, ptr @g_ctl_info_ptr, align 8
  %28 = icmp ne ptr %27, null
  br i1 %28, label %29, label %35

29:                                               ; preds = %25
  %30 = load ptr, ptr %2, align 8
  %31 = load ptr, ptr %30, align 8
  %32 = load ptr, ptr @g_ctl_info_ptr, align 8
  %33 = icmp ne ptr %31, %32
  br i1 %33, label %34, label %35

34:                                               ; preds = %29
  store i32 0, ptr %3, align 4
  br label %35

35:                                               ; preds = %34, %29, %25
  %36 = load ptr, ptr @get_new_info_config.new_ctl_ptr, align 8
  %37 = load ptr, ptr %2, align 8
  store ptr %36, ptr %37, align 8
  %38 = load i32, ptr %3, align 4
  call void @llvm.lifetime.end.p0(i64 4, ptr %3) #4
  ret i32 %38
}

; Function Attrs: nocallback nofree nosync nounwind willreturn memory(argmem: readwrite)
declare void @llvm.lifetime.start.p0(i64 immarg, ptr captures(none)) #1

declare i32 @slurm_load_ctl_conf(i64 noundef, ptr noundef) #2

declare void @slurm_free_ctl_conf(ptr noundef) #2

; Function Attrs: nounwind willreturn memory(none)
declare ptr @__errno_location() #3

; Function Attrs: nocallback nofree nosync nounwind willreturn memory(argmem: readwrite)
declare void @llvm.lifetime.end.p0(i64 immarg, ptr captures(none)) #1


!llvm.module.flags = !{!0, !1, !2, !3, !4, !5, !6, !7}

!0 = !{i32 7, !"Dwarf Version", i32 5}
!1 = !{i32 2, !"Debug Info Version", i32 3}
!2 = !{i32 1, !"wchar_size", i32 4}
!3 = !{i32 8, !"PIC Level", i32 2}
!4 = !{i32 7, !"PIE Level", i32 2}
!5 = !{i32 7, !"uwtable", i32 2}
!6 = !{i32 7, !"frame-pointer", i32 2}
!7 = !{i32 7, !"debug-info-assignment-tracking", i1 true}
